target datalayout = "e-m:e-p270:32:32-p271:32:32-p272:64:64-i64:64-i128:128-f80:128-n8:16:32:64-S128"
target triple = "x86_64-unknown-linux-gnu"

%struct.QEnumLookup = type { ptr, ptr, i32 }
%struct.UserCreatableClass = type { %struct.InterfaceClass, ptr, ptr }
%struct.InterfaceClass = type { %struct.ObjectClass, ptr, ptr }
%struct.ObjectClass = type { ptr, ptr, [4 x ptr], [4 x ptr], ptr, ptr }

@.str.6 = private unnamed_addr constant [15 x i8] c"user-creatable\00", align 1
@.str.10 = private unnamed_addr constant [4 x i8] c"p2p\00", align 1
@.str.11 = private unnamed_addr constant [5 x i8] c"addr\00", align 1
@.str.12 = private unnamed_addr constant [9 x i8] c"audiodev\00", align 1
@.str.13 = private unnamed_addr constant [8 x i8] c"gl-mode\00", align 1
@.str.14 = private unnamed_addr constant [14 x i8] c"DisplayGLMode\00", align 1
@DisplayGLMode_lookup = external constant %struct.QEnumLookup, align 8
@.str.15 = private unnamed_addr constant [110 x i8] c"/home/dtcxzyw/WorkSpace/Projects/compilers/llvm-opt-benchmark/bench/qemu/qemu/include/qom/object_interfaces.h\00", align 1
@__func__.USER_CREATABLE_CLASS = private unnamed_addr constant [21 x i8] c"USER_CREATABLE_CLASS\00", align 1

; Function Attrs: nounwind sspstrong uwtable
define internal ptr @USER_CREATABLE_CLASS(ptr noundef %klass) #0 {
entry:
  %klass.addr = alloca ptr, align 8
  store ptr %klass, ptr %klass.addr, align 8
  %0 = load ptr, ptr %klass.addr, align 8
  %call = call ptr @object_class_dynamic_cast_assert(ptr noundef %0, ptr noundef @.str.6, ptr noundef @.str.15, i32 noundef 12, ptr noundef @__func__.USER_CREATABLE_CLASS)
  ret ptr %call
}

; Function Attrs: nounwind sspstrong uwtable
define internal void @dbus_display_class_init(ptr noundef %oc, ptr noundef %data) #0 {
entry:
  %oc.addr = alloca ptr, align 8
  %data.addr = alloca ptr, align 8
  %ucc = alloca ptr, align 8
  store ptr %oc, ptr %oc.addr, align 8
  store ptr %data, ptr %data.addr, align 8
  %0 = load ptr, ptr %oc.addr, align 8
  %call = call ptr @USER_CREATABLE_CLASS(ptr noundef %0)
  store ptr %call, ptr %ucc, align 8
  %1 = load ptr, ptr %ucc, align 8
  %complete = getelementptr inbounds %struct.UserCreatableClass, ptr %1, i32 0, i32 1
  store ptr @dbus_display_complete, ptr %complete, align 8
  %2 = load ptr, ptr %oc.addr, align 8
  %call1 = call ptr @object_class_property_add_bool(ptr noundef %2, ptr noundef @.str.10, ptr noundef @get_dbus_p2p, ptr noundef @set_dbus_p2p)
  %3 = load ptr, ptr %oc.addr, align 8
  %call2 = call ptr @object_class_property_add_str(ptr noundef %3, ptr noundef @.str.11, ptr noundef @get_dbus_addr, ptr noundef @set_dbus_addr)
  %4 = load ptr, ptr %oc.addr, align 8
  %call3 = call ptr @object_class_property_add_str(ptr noundef %4, ptr noundef @.str.12, ptr noundef @get_audiodev, ptr noundef @set_audiodev)
  %5 = load ptr, ptr %oc.addr, align 8
  %call4 = call ptr @object_class_property_add_enum(ptr noundef %5, ptr noundef @.str.13, ptr noundef @.str.14, ptr noundef @DisplayGLMode_lookup, ptr noundef @get_gl_mode, ptr noundef @set_gl_mode)
  ret void
}