; Function Attrs: nounwind sspstrong uwtable
define internal void @dbus_display_class_init(ptr noundef %oc, ptr readnone captures(none) %data) #0 {
entry:
  %call.i = tail call ptr @object_class_dynamic_cast_assert(ptr noundef %oc, ptr noundef nonnull @.str.6, ptr noundef nonnull @.str.15, i32 noundef 12, ptr noundef nonnull @__func__.USER_CREATABLE_CLASS) #5
  %complete = getelementptr inbounds nuw i8, ptr %call.i, i64 112
  store ptr @dbus_display_complete, ptr %complete, align 8
  %call1 = tail call ptr @object_class_property_add_bool(ptr noundef %oc, ptr noundef nonnull @.str.10, ptr noundef nonnull @get_dbus_p2p, ptr noundef nonnull @set_dbus_p2p) #5
  %call2 = tail call ptr @object_class_property_add_str(ptr noundef %oc, ptr noundef nonnull @.str.11, ptr noundef nonnull @get_dbus_addr, ptr noundef nonnull @set_dbus_addr) #5
  %call3 = tail call ptr @object_class_property_add_str(ptr noundef %oc, ptr noundef nonnull @.str.12, ptr noundef nonnull @get_audiodev, ptr noundef nonnull @set_audiodev) #5
  %call4 = tail call ptr @object_class_property_add_enum(ptr noundef %oc, ptr noundef nonnull @.str.13, ptr noundef nonnull @.str.14, ptr noundef nonnull @DisplayGLMode_lookup, ptr noundef nonnull @get_gl_mode, ptr noundef nonnull @set_gl_mode) #5
  ret void
}